Certificate:
    Data:
        Version: 3 (0x2)
        Serial Number: 1 (0x1)
    Signature Algorithm: sha256WithRSAEncryption
        Issuer: DC=io, DC=los-pollos, O=Bouncer Unit Test OIDC , OU=Bouncer unit test OIDC Simple Signing CA, CN=Bouncer unit test OIDC Simple Signing CA
        Validity
            Not Before: Aug 26 16:56:57 2018 GMT
            Not After : Jul  4 16:56:57 2028 GMT
        Subject: DC=io, DC=los-pollos, O=Bouncer Unit Test, CN=Bouncer OIDC test server
        Subject Public Key Info:
            Public Key Algorithm: rsaEncryption
                Public-Key: (2048 bit)
                Modulus:
                    00:dc:af:1e:3e:f2:3d:48:82:bc:88:87:39:a7:d0:
                    99:e6:62:a5:d6:06:43:3e:41:0c:62:24:c1:48:80:
                    de:0c:f3:60:aa:fd:eb:1a:26:7c:bf:19:6d:1a:44:
                    c1:07:aa:7d:a2:65:b4:5c:bc:20:ec:ef:a3:58:10:
                    48:85:15:f5:78:08:a1:8c:29:76:84:92:cd:6d:01:
                    1a:0c:36:2a:c5:c2:1f:0b:c2:25:2c:7b:55:0d:28:
                    3c:89:a6:59:62:1e:53:95:72:62:2c:ed:83:67:f0:
                    ac:12:8a:60:04:78:df:f1:f5:73:2a:37:62:db:e7:
                    60:e8:c9:44:e0:9b:ba:17:1f:a9:5a:e5:9d:0d:3b:
                    f0:44:b9:9e:cb:ae:88:33:c7:70:84:a9:16:b0:50:
                    1d:04:60:75:94:f3:50:48:af:81:39:53:4f:25:4a:
                    87:01:5c:d3:9e:55:fa:af:c3:be:b6:93:22:a7:14:
                    60:1d:b0:d5:a5:07:71:79:2e:9b:97:9e:db:eb:c5:
                    ea:7d:e1:b4:70:c4:b4:b8:12:4e:bc:34:42:1b:9a:
                    4e:c8:c7:2d:87:f5:f5:23:4f:7e:7c:e6:45:0b:95:
                    a4:d1:26:4d:71:47:97:50:1b:66:01:1c:20:ab:f0:
                    3a:76:c3:f2:74:25:05:e0:12:24:1e:ea:6a:e5:43:
                    69:93
                Exponent: 65537 (0x10001)
        X509v3 extensions:
            X509v3 Key Usage: critical
                Digital Signature, Key Encipherment
            X509v3 Basic Constraints: 
                CA:FALSE
            X509v3 Extended Key Usage: 
                TLS Web Server Authentication, TLS Web Client Authentication
            X509v3 Subject Key Identifier: 
                9C:01:9E:58:2D:AF:42:DA:F2:19:6E:D5:EC:A3:9F:1C:B1:67:22:D6
            X509v3 Authority Key Identifier: 
                keyid:35:7C:6E:15:57:0E:66:A2:11:85:90:21:D5:43:5A:D0:56:56:CB:01

            X509v3 Subject Alternative Name: 
                DNS:bouncer-test-hostmachine
    Signature Algorithm: sha256WithRSAEncryption
         3c:b8:37:42:0a:df:6b:e3:94:c6:15:92:46:2d:f5:1b:6d:6c:
         82:b9:30:12:65:1a:64:2a:f5:94:d0:7f:67:26:00:19:6f:81:
         eb:6d:15:bd:57:b4:35:ff:e2:4f:b9:5b:9e:ea:6d:9a:e2:99:
         24:dc:a0:68:5c:24:98:83:6a:fc:21:a4:ff:c1:ef:11:ac:46:
         17:48:ed:48:eb:dd:f4:70:fd:8f:32:c9:88:a4:de:d7:f5:65:
         3c:9c:ac:42:62:f2:78:3f:37:eb:6c:3d:ed:19:1c:5e:c7:ba:
         40:bd:01:68:b2:f6:af:6e:0d:3b:c6:fd:f5:56:d5:8e:da:ea:
         d7:4e:ca:93:0d:4c:97:81:0e:e3:05:69:28:6d:1a:ec:42:18:
         bd:cd:b6:b3:63:f0:1f:18:3d:13:4f:db:c2:4f:cc:7d:3c:e7:
         ac:7a:b8:af:46:a3:b8:51:00:9a:12:d7:45:60:82:0e:01:1a:
         e5:e8:ed:7f:a2:e0:a0:56:a4:e9:3a:76:33:56:3a:78:fb:a4:
         4d:b1:f3:9b:2a:f9:c7:a9:52:bb:02:93:7d:ce:3c:ed:ce:7b:
         09:cc:df:ae:b6:4e:b9:40:e9:cd:4b:c3:ef:79:c6:a6:68:ad:
         6b:6a:61:48:b5:09:a4:1f:2a:7e:33:4d:0f:5b:74:f0:ee:f9:
         5c:fb:b3:31
-----BEGIN CERTIFICATE-----
MIIERjCCAy6gAwIBAgIBATANBgkqhkiG9w0BAQsFADCBuDESMBAGCgmSJomT8ixk
ARkWAmlvMRowGAYKCZImiZPyLGQBGRYKbG9zLXBvbGxvczEgMB4GA1UECgwXQm91
bmNlciBVbml0IFRlc3QgT0lEQyAxMTAvBgNVBAsMKEJvdW5jZXIgdW5pdCB0ZXN0
IE9JREMgU2ltcGxlIFNpZ25pbmcgQ0ExMTAvBgNVBAMMKEJvdW5jZXIgdW5pdCB0
ZXN0IE9JREMgU2ltcGxlIFNpZ25pbmcgQ0EwHhcNMTgwODI2MTY1NjU3WhcNMjgw
NzA0MTY1NjU3WjBvMRIwEAYKCZImiZPyLGQBGRYCaW8xGjAYBgoJkiaJk/IsZAEZ
Fgpsb3MtcG9sbG9zMRowGAYDVQQKDBFCb3VuY2VyIFVuaXQgVGVzdDEhMB8GA1UE
AwwYQm91bmNlciBPSURDIHRlc3Qgc2VydmVyMIIBIjANBgkqhkiG9w0BAQEFAAOC
AQ8AMIIBCgKCAQEA3K8ePvI9SIK8iIc5p9CZ5mKl1gZDPkEMYiTBSIDeDPNgqv3r
GiZ8vxltGkTBB6p9omW0XLwg7O+jWBBIhRX1eAihjCl2hJLNbQEaDDYqxcIfC8Il
LHtVDSg8iaZZYh5TlXJiLO2DZ/CsEopgBHjf8fVzKjdi2+dg6MlE4Ju6Fx+pWuWd
DTvwRLmey66IM8dwhKkWsFAdBGB1lPNQSK+BOVNPJUqHAVzTnlX6r8O+tpMipxRg
HbDVpQdxeS6bl57b68XqfeG0cMS0uBJOvDRCG5pOyMcth/X1I09+fOZFC5Wk0SZN
cUeXUBtmARwgq/A6dsPydCUF4BIkHupq5UNpkwIDAQABo4GiMIGfMA4GA1UdDwEB
/wQEAwIFoDAJBgNVHRMEAjAAMB0GA1UdJQQWMBQGCCsGAQUFBwMBBggrBgEFBQcD
AjAdBgNVHQ4EFgQUnAGeWC2vQtryGW7V7KOfHLFnItYwHwYDVR0jBBgwFoAUNXxu
FVcOZqIRhZAh1UNa0FZWywEwIwYDVR0RBBwwGoIYYm91bmNlci10ZXN0LWhvc3Rt
YWNoaW5lMA0GCSqGSIb3DQEBCwUAA4IBAQA8uDdCCt9r45TGFZJGLfUbbWyCuTAS
ZRpkKvWU0H9nJgAZb4HrbRW9V7Q1/+JPuVue6m2a4pkk3KBoXCSYg2r8IaT/we8R
rEYXSO1I6930cP2PMsmIpN7X9WU8nKxCYvJ4PzfrbD3tGRxex7pAvQFosvavbg07
xv31VtWO2urXTsqTDUyXgQ7jBWkobRrsQhi9zbazY/AfGD0TT9vCT8x9POeseriv
RqO4UQCaEtdFYIIOARrl6O1/ouCgVqTpOnYzVjp4+6RNsfObKvnHqVK7ApN9zjzt
znsJzN+utk65QOnNS8PvecamaK1ramFItQmkHyp+M00PW3Tw7vlc+7Mx
-----END CERTIFICATE-----
