Certificate:
    Data:
        Version: 3 (0x2)
        Serial Number: 2 (0x2)
    Signature Algorithm: sha256WithRSAEncryption
        Issuer: DC=io, DC=los-pollos, O=Bouncer OIDC unit Test, OU=Bouncer OIDC unit Test Simple Root CA, CN=Bouncer OIDC unit Test Simple Root CA
        Validity
            Not Before: Aug 26 16:56:57 2018 GMT
            Not After : Aug 25 16:56:57 2028 GMT
        Subject: DC=io, DC=los-pollos, O=Bouncer Unit Test OIDC , OU=Bouncer unit test OIDC Simple Signing CA, CN=Bouncer unit test OIDC Simple Signing CA
        Subject Public Key Info:
            Public Key Algorithm: rsaEncryption
                Public-Key: (2048 bit)
                Modulus:
                    00:d4:29:9c:9c:d5:2c:20:44:99:83:ae:f4:18:54:
                    44:65:05:75:c3:19:a3:33:b1:e8:58:e5:58:96:6b:
                    98:23:c8:19:b5:b8:a7:5a:09:af:f6:24:f9:ea:e9:
                    21:01:c7:b4:b8:57:f4:13:13:2a:fd:2b:c3:51:00:
                    1f:16:09:a2:3d:83:c8:18:ea:7c:e6:c9:e3:d3:fa:
                    b4:cb:c5:d9:02:83:d4:fa:fa:a2:8f:6c:e1:a9:15:
                    72:66:80:e4:b7:f3:ea:48:71:6e:ad:1a:ed:4b:cc:
                    d5:0d:6a:dc:74:c0:05:df:c1:01:2c:a4:1d:02:70:
                    f9:81:0e:2a:e1:bb:26:e9:25:f2:0f:c6:93:a7:97:
                    d4:9f:48:6d:e4:bc:d1:b5:4a:e5:e9:7e:3b:e9:80:
                    a1:47:0a:53:38:79:b8:bf:51:9f:d7:0c:35:7a:9a:
                    9a:9e:60:7a:03:4a:ee:80:39:44:96:b0:d5:1e:ba:
                    a4:50:89:bb:06:b8:d2:27:d8:d2:b8:27:28:55:4a:
                    13:74:6b:25:7e:67:16:f6:32:38:ec:ba:45:f2:b1:
                    12:be:db:9c:46:27:b1:95:ac:ed:42:76:55:52:ce:
                    84:22:ef:82:9f:e6:49:d4:e3:d5:36:cf:3f:af:6e:
                    38:2a:d3:f4:16:ce:8e:6f:78:53:67:58:99:3f:27:
                    0f:41
                Exponent: 65537 (0x10001)
        X509v3 extensions:
            X509v3 Key Usage: critical
                Certificate Sign, CRL Sign
            X509v3 Basic Constraints: critical
                CA:TRUE, pathlen:0
            X509v3 Subject Key Identifier: 
                EB:3D:1C:34:50:A2:BE:8A:0A:B5:1B:4F:75:C3:C7:C6:0B:20:DE:88
            X509v3 Authority Key Identifier: 
                keyid:55:8B:01:8E:85:B5:C4:F7:A8:D5:71:B9:EB:AC:34:4B:BA:BD:47:59

    Signature Algorithm: sha256WithRSAEncryption
         b9:c2:d0:0d:43:ad:94:88:88:ee:3c:5f:3f:c3:14:f1:70:b7:
         7c:be:c1:2c:b3:c7:ec:9d:bb:9f:a6:a9:76:bf:a7:dc:93:86:
         91:04:77:3b:fa:72:4a:21:75:04:4d:7b:46:47:1f:87:27:2c:
         07:ba:40:48:b1:8b:91:3a:d9:87:75:9b:e5:68:00:f1:cb:48:
         5f:d5:dc:38:05:f1:ca:7d:60:8f:bc:7a:0f:91:9b:96:4d:b3:
         48:ba:c5:91:12:0d:8b:39:60:1c:33:ab:8f:11:bf:11:33:87:
         3c:73:b2:71:64:40:40:38:41:ac:0b:e2:00:cc:21:a7:bd:df:
         c5:11:12:1f:00:b7:17:a3:df:27:24:54:4d:42:01:ee:fc:6a:
         0f:c8:b1:ec:1c:78:64:77:39:1d:2f:03:b2:a6:3f:c0:24:5f:
         03:d6:03:43:da:65:18:16:20:64:39:b5:60:bb:f0:7b:b6:d6:
         97:6b:89:85:e5:ce:49:1f:84:72:b6:0c:ef:f3:5b:5c:6d:23:
         1e:8e:84:85:c9:6f:3c:71:83:96:72:52:ec:b0:9e:88:14:3c:
         48:b0:a2:9e:1b:38:02:38:7f:74:52:e3:e5:c3:68:24:ff:46:
         d6:a2:0a:c6:a0:79:ba:7c:f3:4a:09:57:cf:14:51:1b:bd:54:
         c7:7d:cc:a7
-----BEGIN CERTIFICATE-----
MIIETDCCAzSgAwIBAgIBAjANBgkqhkiG9w0BAQsFADCBsTESMBAGCgmSJomT8ixk
ARkWAmlvMRowGAYKCZImiZPyLGQBGRYKbG9zLXBvbGxvczEfMB0GA1UECgwWQm91
bmNlciBPSURDIHVuaXQgVGVzdDEuMCwGA1UECwwlQm91bmNlciBPSURDIHVuaXQg
VGVzdCBTaW1wbGUgUm9vdCBDQTEuMCwGA1UEAwwlQm91bmNlciBPSURDIHVuaXQg
VGVzdCBTaW1wbGUgUm9vdCBDQTAeFw0xODA4MjYxNjU2NTdaFw0yODA4MjUxNjU2
NTdaMIG4MRIwEAYKCZImiZPyLGQBGRYCaW8xGjAYBgoJkiaJk/IsZAEZFgpsb3Mt
cG9sbG9zMSAwHgYDVQQKDBdCb3VuY2VyIFVuaXQgVGVzdCBPSURDIDExMC8GA1UE
CwwoQm91bmNlciB1bml0IHRlc3QgT0lEQyBTaW1wbGUgU2lnbmluZyBDQTExMC8G
A1UEAwwoQm91bmNlciB1bml0IHRlc3QgT0lEQyBTaW1wbGUgU2lnbmluZyBDQTCC
ASIwDQYJKoZIhvcNAQEBBQADggEPADCCAQoCggEBANQpnJzVLCBEmYOu9BhURGUF
dcMZozOx6FjlWJZrmCPIGbW4p1oJr/Yk+erpIQHHtLhX9BMTKv0rw1EAHxYJoj2D
yBjqfObJ49P6tMvF2QKD1Pr6oo9s4akVcmaA5Lfz6khxbq0a7UvM1Q1q3HTABd/B
ASykHQJw+YEOKuG7Jukl8g/Gk6eX1J9IbeS80bVK5el+O+mAoUcKUzh5uL9Rn9cM
NXqamp5gegNK7oA5RJaw1R66pFCJuwa40ifY0rgnKFVKE3RrJX5nFvYyOOy6RfKx
Er7bnEYnsZWs7UJ2VVLOhCLvgp/mSdTj1TbPP69uOCrT9BbOjm94U2dYmT8nD0EC
AwEAAaNmMGQwDgYDVR0PAQH/BAQDAgEGMBIGA1UdEwEB/wQIMAYBAf8CAQAwHQYD
VR0OBBYEFOs9HDRQor6KCrUbT3XDx8YLIN6IMB8GA1UdIwQYMBaAFFWLAY6FtcT3
qNVxueusNEu6vUdZMA0GCSqGSIb3DQEBCwUAA4IBAQC5wtANQ62UiIjuPF8/wxTx
cLd8vsEss8fsnbufpql2v6fck4aRBHc7+nJKIXUETXtGRx+HJywHukBIsYuROtmH
dZvlaADxy0hf1dw4BfHKfWCPvHoPkZuWTbNIusWREg2LOWAcM6uPEb8RM4c8c7Jx
ZEBAOEGsC+IAzCGnvd/FERIfALcXo98nJFRNQgHu/GoPyLHsHHhkdzkdLwOypj/A
JF8D1gND2mUYFiBkObVgu/B7ttaXa4mF5c5JH4Rytgzv81tcbSMejoSFyW88cYOW
clLssJ6IFDxIsKKeGzgCOH90UuPlw2gk/0bWogrGoHm6fPNKCVfPFFEbvVTHfcyn
-----END CERTIFICATE-----
Certificate:
    Data:
        Version: 3 (0x2)
        Serial Number: 1 (0x1)
    Signature Algorithm: sha256WithRSAEncryption
        Issuer: DC=io, DC=los-pollos, O=Bouncer OIDC unit Test, OU=Bouncer OIDC unit Test Simple Root CA, CN=Bouncer OIDC unit Test Simple Root CA
        Validity
            Not Before: Aug 26 16:56:57 2018 GMT
            Not After : Aug 25 16:56:57 2028 GMT
        Subject: DC=io, DC=los-pollos, O=Bouncer OIDC unit Test, OU=Bouncer OIDC unit Test Simple Root CA, CN=Bouncer OIDC unit Test Simple Root CA
        Subject Public Key Info:
            Public Key Algorithm: rsaEncryption
                Public-Key: (2048 bit)
                Modulus:
                    00:c5:37:87:f6:8e:c4:ca:07:f3:74:f7:80:a4:10:
                    1a:f7:79:cd:82:f6:76:7a:49:63:04:3b:29:92:5a:
                    b8:5d:bb:79:68:9b:d7:22:5d:b2:bf:7f:a3:fe:4c:
                    ec:7f:fc:ff:c3:cc:13:bc:cc:a6:d2:5a:0f:e6:bc:
                    15:83:75:01:37:f2:26:bd:52:1f:b6:68:7d:df:38:
                    0f:2a:8c:ae:b5:cf:fc:50:4c:00:2c:32:86:8d:4d:
                    b9:3b:84:23:fb:a6:79:70:26:f1:c0:88:53:a5:f2:
                    06:b6:71:35:49:58:e5:58:bf:31:2b:d9:47:d5:87:
                    4d:7b:d8:40:2a:7f:c1:2c:1f:ee:c9:26:d4:fb:68:
                    e0:c0:63:47:85:0d:4c:89:04:ac:c4:f8:d7:e4:50:
                    e4:ee:0e:d2:a0:29:4c:e5:82:23:d6:d0:a3:af:db:
                    fc:0b:dd:3c:d2:2f:fe:8a:9f:b7:66:eb:1c:11:1a:
                    68:29:e5:f6:dc:fb:ce:31:05:5b:31:4e:a6:72:0c:
                    bc:ca:f5:a3:73:23:c9:78:b5:9f:b4:d4:3f:78:1e:
                    e0:54:66:94:66:0a:31:b8:f2:76:03:3e:c5:39:14:
                    a4:cd:f3:51:b0:5d:87:cb:bf:32:8f:54:95:19:18:
                    ac:d9:a3:6c:c3:d6:b1:c7:73:d8:78:f8:c5:d0:0d:
                    99:03
                Exponent: 65537 (0x10001)
        X509v3 extensions:
            X509v3 Key Usage: critical
                Certificate Sign, CRL Sign
            X509v3 Basic Constraints: critical
                CA:TRUE
            X509v3 Subject Key Identifier: 
                55:8B:01:8E:85:B5:C4:F7:A8:D5:71:B9:EB:AC:34:4B:BA:BD:47:59
            X509v3 Authority Key Identifier: 
                keyid:55:8B:01:8E:85:B5:C4:F7:A8:D5:71:B9:EB:AC:34:4B:BA:BD:47:59

    Signature Algorithm: sha256WithRSAEncryption
         7d:bb:88:73:94:60:bc:d5:e7:55:7e:5e:37:c2:89:bd:47:41:
         d7:b4:60:c8:f3:60:67:5b:c2:02:35:aa:6d:8d:56:cb:5e:f1:
         55:7a:dc:9d:b7:b6:e0:ce:6d:da:8b:28:96:a1:e3:63:f7:a0:
         04:b1:64:21:50:24:7b:6c:1e:11:52:ed:47:67:68:a5:d9:b6:
         23:9e:6d:b0:8c:18:86:e1:ba:3e:bb:23:14:67:eb:9a:c7:da:
         b5:72:b4:3e:9d:d0:13:42:32:77:9d:2c:85:15:c4:eb:3e:39:
         0a:26:06:39:89:fb:c8:79:4c:4d:7e:39:e9:f8:7f:df:55:96:
         0c:fb:dd:24:9a:2c:07:a1:bc:42:a1:ea:9f:5b:eb:00:c4:fb:
         e9:28:51:04:62:15:4e:35:11:12:ae:9d:9e:10:2a:bd:2a:3b:
         72:1c:12:d7:70:c1:f5:13:03:78:6e:8d:cb:b5:de:f5:29:0f:
         8d:03:92:e9:d5:4f:02:f6:03:06:9e:36:80:23:5c:5a:54:a5:
         2e:1b:97:72:7c:b6:8b:79:61:12:ac:9b:a1:15:a3:38:fe:4f:
         b2:08:d6:cf:33:9e:2b:b9:84:d1:6e:b2:4f:9a:2b:51:bd:f8:
         d6:8f:1e:2b:a5:90:ed:c4:0f:27:e1:50:b1:78:ac:70:17:4a:
         ff:c7:e2:9c
-----BEGIN CERTIFICATE-----
MIIEQjCCAyqgAwIBAgIBATANBgkqhkiG9w0BAQsFADCBsTESMBAGCgmSJomT8ixk
ARkWAmlvMRowGAYKCZImiZPyLGQBGRYKbG9zLXBvbGxvczEfMB0GA1UECgwWQm91
bmNlciBPSURDIHVuaXQgVGVzdDEuMCwGA1UECwwlQm91bmNlciBPSURDIHVuaXQg
VGVzdCBTaW1wbGUgUm9vdCBDQTEuMCwGA1UEAwwlQm91bmNlciBPSURDIHVuaXQg
VGVzdCBTaW1wbGUgUm9vdCBDQTAeFw0xODA4MjYxNjU2NTdaFw0yODA4MjUxNjU2
NTdaMIGxMRIwEAYKCZImiZPyLGQBGRYCaW8xGjAYBgoJkiaJk/IsZAEZFgpsb3Mt
cG9sbG9zMR8wHQYDVQQKDBZCb3VuY2VyIE9JREMgdW5pdCBUZXN0MS4wLAYDVQQL
DCVCb3VuY2VyIE9JREMgdW5pdCBUZXN0IFNpbXBsZSBSb290IENBMS4wLAYDVQQD
DCVCb3VuY2VyIE9JREMgdW5pdCBUZXN0IFNpbXBsZSBSb290IENBMIIBIjANBgkq
hkiG9w0BAQEFAAOCAQ8AMIIBCgKCAQEAxTeH9o7EygfzdPeApBAa93nNgvZ2eklj
BDspklq4Xbt5aJvXIl2yv3+j/kzsf/z/w8wTvMym0loP5rwVg3UBN/ImvVIftmh9
3zgPKoyutc/8UEwALDKGjU25O4Qj+6Z5cCbxwIhTpfIGtnE1SVjlWL8xK9lH1YdN
e9hAKn/BLB/uySbU+2jgwGNHhQ1MiQSsxPjX5FDk7g7SoClM5YIj1tCjr9v8C908
0i/+ip+3ZuscERpoKeX23PvOMQVbMU6mcgy8yvWjcyPJeLWftNQ/eB7gVGaUZgox
uPJ2Az7FORSkzfNRsF2Hy78yj1SVGRis2aNsw9axx3PYePjF0A2ZAwIDAQABo2Mw
YTAOBgNVHQ8BAf8EBAMCAQYwDwYDVR0TAQH/BAUwAwEB/zAdBgNVHQ4EFgQUVYsB
joW1xPeo1XG566w0S7q9R1kwHwYDVR0jBBgwFoAUVYsBjoW1xPeo1XG566w0S7q9
R1kwDQYJKoZIhvcNAQELBQADggEBAH27iHOUYLzV51V+XjfCib1HQde0YMjzYGdb
wgI1qm2NVste8VV63J23tuDObdqLKJah42P3oASxZCFQJHtsHhFS7UdnaKXZtiOe
bbCMGIbhuj67IxRn65rH2rVytD6d0BNCMnedLIUVxOs+OQomBjmJ+8h5TE1+Oen4
f99Vlgz73SSaLAehvEKh6p9b6wDE++koUQRiFU41ERKunZ4QKr0qO3IcEtdwwfUT
A3hujcu13vUpD40DkunVTwL2AwaeNoAjXFpUpS4bl3J8tot5YRKsm6EVozj+T7II
1s8zniu5hNFusk+aK1G9+NaPHiulkO3EDyfhULF4rHAXSv/H4pw=
-----END CERTIFICATE-----
