Certificate:
    Data:
        Version: 3 (0x2)
        Serial Number: 2 (0x2)
    Signature Algorithm: sha256WithRSAEncryption
        Issuer: DC=io, DC=los-pollos, O=Bouncer Unit Test OIDC , OU=Bouncer unit test OIDC Simple Signing CA, CN=Bouncer unit test OIDC Simple Signing CA
        Validity
            Not Before: Aug 26 16:56:57 2018 GMT
            Not After : Jul  4 16:56:57 2028 GMT
        Subject: DC=io, DC=los-pollos, O=Bouncer Unit Test, CN=Bouncer OIDC test server
        Subject Public Key Info:
            Public Key Algorithm: rsaEncryption
                Public-Key: (2048 bit)
                Modulus:
                    00:ac:f8:d8:c8:46:59:a2:a6:59:c0:98:75:93:e6:
                    a0:2e:62:1b:d7:85:3b:1a:4b:f4:b6:ae:44:a0:93:
                    af:ea:2a:78:68:3f:ba:8b:ac:99:85:b9:2b:1c:7e:
                    df:ad:e5:97:25:ad:6a:30:59:2c:f6:bf:db:ef:1f:
                    ef:f5:72:3f:0f:db:10:fb:b2:47:fc:d7:6d:56:0a:
                    d8:c2:29:b5:88:1a:f5:f5:42:10:c9:95:3f:2b:5a:
                    af:7c:9e:2c:37:c3:11:b8:ab:1d:30:b5:d6:b7:c1:
                    88:74:df:75:be:f1:56:1a:76:e9:f0:a6:f5:11:93:
                    6d:09:41:f0:e2:32:da:6f:b7:5d:79:62:5b:62:ee:
                    21:10:66:9c:90:16:4f:00:3d:38:40:74:64:82:4d:
                    eb:0e:2b:23:4d:ac:82:c7:ea:fa:17:d5:af:1a:19:
                    73:73:97:ab:94:42:e0:6d:3d:fc:4a:63:02:b1:83:
                    9d:7d:91:25:eb:27:0b:7e:93:bf:da:42:ee:77:ea:
                    69:8a:4b:11:f6:db:c1:37:0c:40:19:31:c5:a4:bf:
                    b1:5f:fd:94:4f:23:fe:30:20:ab:44:30:36:ff:91:
                    ea:04:7f:0a:53:52:1b:c9:18:fd:5a:bd:d3:2d:d1:
                    20:bc:09:a2:08:89:f3:d1:77:2c:2d:41:45:44:c7:
                    df:17
                Exponent: 65537 (0x10001)
        X509v3 extensions:
            X509v3 Key Usage: critical
                Digital Signature, Key Encipherment
            X509v3 Basic Constraints: 
                CA:FALSE
            X509v3 Extended Key Usage: 
                TLS Web Server Authentication, TLS Web Client Authentication
            X509v3 Subject Key Identifier: 
                2F:03:3D:25:7F:BA:3F:87:AE:5F:5F:D3:53:7F:3D:93:7D:0D:92:1B
            X509v3 Authority Key Identifier: 
                keyid:EB:3D:1C:34:50:A2:BE:8A:0A:B5:1B:4F:75:C3:C7:C6:0B:20:DE:88

            X509v3 Subject Alternative Name: 
                DNS:los-pollos.io
    Signature Algorithm: sha256WithRSAEncryption
         2b:98:57:4a:d5:ce:7d:63:f0:65:52:99:5c:7b:cb:ad:04:7a:
         27:21:35:d5:ad:1c:0c:05:8f:b4:51:39:be:6a:3a:ee:71:f0:
         ce:61:be:cb:20:87:68:5a:fe:5d:8f:e7:80:0a:ec:90:a3:33:
         77:10:fd:78:27:7a:eb:3c:c1:3c:61:fb:d4:1c:b1:8e:d5:af:
         d2:96:9d:29:d7:66:36:e2:79:10:26:0d:2e:17:83:ab:7c:5e:
         1c:04:c9:35:b5:5f:f8:56:6b:47:ab:4b:90:ed:e1:3e:53:12:
         7d:7e:4e:83:c6:b2:5e:7f:f2:a5:dc:c8:8e:db:2f:9f:51:1f:
         a4:f4:ae:5f:14:82:17:09:d4:14:49:f5:e2:9d:dc:b6:4b:4a:
         f3:0c:4d:dc:c1:c9:2c:a6:8d:16:7c:bd:0f:fd:57:77:e2:08:
         d6:3e:84:7c:ad:f9:97:15:86:3a:a1:10:ae:bf:79:e3:1b:e3:
         8f:12:c1:0d:e9:bd:98:fb:bf:18:8c:e9:e7:11:13:9e:47:2a:
         93:18:c0:f2:3a:a8:cd:87:7a:e2:00:8d:92:80:ba:9c:c0:9e:
         0d:82:2a:a5:36:8f:f1:00:a4:74:f7:6a:4c:7b:4b:ff:9f:f3:
         47:6f:cd:82:5b:00:0f:9a:90:8f:e1:6d:d7:f6:4e:21:f6:92:
         fc:73:84:e2
-----BEGIN CERTIFICATE-----
MIIEOzCCAyOgAwIBAgIBAjANBgkqhkiG9w0BAQsFADCBuDESMBAGCgmSJomT8ixk
ARkWAmlvMRowGAYKCZImiZPyLGQBGRYKbG9zLXBvbGxvczEgMB4GA1UECgwXQm91
bmNlciBVbml0IFRlc3QgT0lEQyAxMTAvBgNVBAsMKEJvdW5jZXIgdW5pdCB0ZXN0
IE9JREMgU2ltcGxlIFNpZ25pbmcgQ0ExMTAvBgNVBAMMKEJvdW5jZXIgdW5pdCB0
ZXN0IE9JREMgU2ltcGxlIFNpZ25pbmcgQ0EwHhcNMTgwODI2MTY1NjU3WhcNMjgw
NzA0MTY1NjU3WjBvMRIwEAYKCZImiZPyLGQBGRYCaW8xGjAYBgoJkiaJk/IsZAEZ
Fgpsb3MtcG9sbG9zMRowGAYDVQQKDBFCb3VuY2VyIFVuaXQgVGVzdDEhMB8GA1UE
AwwYQm91bmNlciBPSURDIHRlc3Qgc2VydmVyMIIBIjANBgkqhkiG9w0BAQEFAAOC
AQ8AMIIBCgKCAQEArPjYyEZZoqZZwJh1k+agLmIb14U7Gkv0tq5EoJOv6ip4aD+6
i6yZhbkrHH7freWXJa1qMFks9r/b7x/v9XI/D9sQ+7JH/NdtVgrYwim1iBr19UIQ
yZU/K1qvfJ4sN8MRuKsdMLXWt8GIdN91vvFWGnbp8Kb1EZNtCUHw4jLab7ddeWJb
Yu4hEGackBZPAD04QHRkgk3rDisjTayCx+r6F9WvGhlzc5erlELgbT38SmMCsYOd
fZEl6ycLfpO/2kLud+ppiksR9tvBNwxAGTHFpL+xX/2UTyP+MCCrRDA2/5HqBH8K
U1IbyRj9Wr3TLdEgvAmiCInz0XcsLUFFRMffFwIDAQABo4GXMIGUMA4GA1UdDwEB
/wQEAwIFoDAJBgNVHRMEAjAAMB0GA1UdJQQWMBQGCCsGAQUFBwMBBggrBgEFBQcD
AjAdBgNVHQ4EFgQULwM9JX+6P4euX1/TU389k30NkhswHwYDVR0jBBgwFoAU6z0c
NFCivooKtRtPdcPHxgsg3ogwGAYDVR0RBBEwD4INbG9zLXBvbGxvcy5pbzANBgkq
hkiG9w0BAQsFAAOCAQEAK5hXStXOfWPwZVKZXHvLrQR6JyE11a0cDAWPtFE5vmo6
7nHwzmG+yyCHaFr+XY/ngArskKMzdxD9eCd66zzBPGH71ByxjtWv0padKddmNuJ5
ECYNLheDq3xeHATJNbVf+FZrR6tLkO3hPlMSfX5Og8ayXn/ypdzIjtsvn1EfpPSu
XxSCFwnUFEn14p3ctktK8wxN3MHJLKaNFny9D/1Xd+II1j6EfK35lxWGOqEQrr95
4xvjjxLBDem9mPu/GIzp5xETnkcqkxjA8jqozYd64gCNkoC6nMCeDYIqpTaP8QCk
dPdqTHtL/5/zR2/NglsAD5qQj+Ft1/ZOIfaS/HOE4g==
-----END CERTIFICATE-----
