Certificate:
    Data:
        Version: 3 (0x2)
        Serial Number: 2 (0x2)
    Signature Algorithm: sha256WithRSAEncryption
        Issuer: DC=io, DC=los-pollos, O=Bouncer OIDC unit Test, OU=Bouncer OIDC unit Test Simple Root CA, CN=Bouncer OIDC unit Test Simple Root CA
        Validity
            Not Before: Aug 26 16:56:57 2018 GMT
            Not After : Aug 25 16:56:57 2028 GMT
        Subject: DC=io, DC=los-pollos, O=Bouncer Unit Test OIDC , OU=Bouncer unit test OIDC Simple Signing CA, CN=Bouncer unit test OIDC Simple Signing CA
        Subject Public Key Info:
            Public Key Algorithm: rsaEncryption
                Public-Key: (2048 bit)
                Modulus:
                    00:cd:be:b1:d1:dc:c1:86:ce:94:dc:9f:f9:45:7e:
                    5b:21:76:ea:f4:f9:f1:e1:00:4e:46:2f:49:22:ba:
                    5e:74:3f:74:b1:f3:28:e0:75:1e:4d:68:5a:b9:f2:
                    c1:00:04:22:c3:47:05:81:7b:e2:d7:e9:cb:9c:b8:
                    b2:31:82:94:28:0e:3d:5b:f3:0c:c1:b3:aa:32:bd:
                    ca:c6:32:01:63:e0:8b:c7:64:37:d4:cf:e3:d7:74:
                    e3:e2:85:b3:f4:c3:52:41:97:f8:a5:5d:fd:8a:41:
                    98:76:9d:de:e9:ea:f4:9c:f9:87:52:6f:e6:86:28:
                    e3:f0:bf:6c:2a:b6:6c:49:58:ad:f5:f3:3c:9b:52:
                    45:3d:c7:77:32:ba:9d:2a:bd:69:e9:08:77:dc:89:
                    ac:b2:9b:3f:e8:fb:a2:42:d1:e4:fa:27:f7:c5:d7:
                    cc:80:34:dd:b0:aa:99:8d:e4:e1:cf:c8:d0:93:35:
                    8e:22:e8:c5:82:ca:e4:60:f0:ba:42:82:95:d0:62:
                    ef:fa:6b:f0:16:9c:3c:be:6e:f7:d1:94:79:91:c2:
                    91:f9:1b:1e:2d:ff:47:76:4c:d1:91:f7:a4:48:7c:
                    60:7b:80:37:09:9f:4d:76:6d:0a:bb:eb:50:d5:36:
                    96:55:11:bb:60:dc:fc:2f:33:d1:a0:82:2f:e3:ad:
                    0d:27
                Exponent: 65537 (0x10001)
        X509v3 extensions:
            X509v3 Key Usage: critical
                Certificate Sign, CRL Sign
            X509v3 Basic Constraints: critical
                CA:TRUE, pathlen:0
            X509v3 Subject Key Identifier: 
                35:7C:6E:15:57:0E:66:A2:11:85:90:21:D5:43:5A:D0:56:56:CB:01
            X509v3 Authority Key Identifier: 
                keyid:BF:A7:C9:6E:A3:66:A7:33:82:E4:A6:94:97:CB:E6:7F:02:F0:70:46

    Signature Algorithm: sha256WithRSAEncryption
         22:2e:8a:3f:42:6c:b7:9f:f6:46:2d:d6:98:c0:7a:16:79:29:
         ad:20:9b:44:64:30:26:d6:fc:13:af:63:af:b5:1d:b2:62:7f:
         f4:8a:16:7a:10:42:9d:0d:ce:be:c6:01:d3:6d:bd:f8:8f:ee:
         84:44:90:ab:ca:a4:fd:92:a1:1c:a0:07:ea:89:25:5e:40:c5:
         f3:71:51:24:43:08:e4:ff:a0:8c:bf:84:4c:c5:17:66:f8:0f:
         87:f7:4a:d3:f2:e1:bf:a9:29:63:bd:74:49:e0:03:f2:4d:e6:
         3f:38:38:51:d6:e5:6d:ee:5a:fd:d8:92:4f:0a:5d:9a:8c:ca:
         59:b9:5b:cf:ad:1e:9d:c7:45:c4:4b:c6:f5:59:6b:b0:92:05:
         64:5b:0e:46:32:8f:95:6e:fa:78:c7:b4:a5:0d:dc:6d:e1:4f:
         a6:90:28:fa:d4:0f:d0:15:d0:04:bf:b2:a9:d1:3b:da:05:7a:
         70:d8:73:2e:3f:e4:b4:82:6c:aa:ad:cf:c5:9f:b5:bb:b6:6b:
         49:bc:bb:71:75:bf:97:21:63:3a:9e:f3:0f:ac:73:b3:bd:98:
         c9:33:ba:4c:2d:3e:00:0b:d2:c2:41:eb:7e:fd:7d:0e:54:9f:
         54:eb:f0:6c:e7:87:cb:50:6d:76:bd:6f:e1:82:3f:5f:89:c5:
         1f:79:3c:56
-----BEGIN CERTIFICATE-----
MIIETDCCAzSgAwIBAgIBAjANBgkqhkiG9w0BAQsFADCBsTESMBAGCgmSJomT8ixk
ARkWAmlvMRowGAYKCZImiZPyLGQBGRYKbG9zLXBvbGxvczEfMB0GA1UECgwWQm91
bmNlciBPSURDIHVuaXQgVGVzdDEuMCwGA1UECwwlQm91bmNlciBPSURDIHVuaXQg
VGVzdCBTaW1wbGUgUm9vdCBDQTEuMCwGA1UEAwwlQm91bmNlciBPSURDIHVuaXQg
VGVzdCBTaW1wbGUgUm9vdCBDQTAeFw0xODA4MjYxNjU2NTdaFw0yODA4MjUxNjU2
NTdaMIG4MRIwEAYKCZImiZPyLGQBGRYCaW8xGjAYBgoJkiaJk/IsZAEZFgpsb3Mt
cG9sbG9zMSAwHgYDVQQKDBdCb3VuY2VyIFVuaXQgVGVzdCBPSURDIDExMC8GA1UE
CwwoQm91bmNlciB1bml0IHRlc3QgT0lEQyBTaW1wbGUgU2lnbmluZyBDQTExMC8G
A1UEAwwoQm91bmNlciB1bml0IHRlc3QgT0lEQyBTaW1wbGUgU2lnbmluZyBDQTCC
ASIwDQYJKoZIhvcNAQEBBQADggEPADCCAQoCggEBAM2+sdHcwYbOlNyf+UV+WyF2
6vT58eEATkYvSSK6XnQ/dLHzKOB1Hk1oWrnywQAEIsNHBYF74tfpy5y4sjGClCgO
PVvzDMGzqjK9ysYyAWPgi8dkN9TP49d04+KFs/TDUkGX+KVd/YpBmHad3unq9Jz5
h1Jv5oYo4/C/bCq2bElYrfXzPJtSRT3HdzK6nSq9aekId9yJrLKbP+j7okLR5Pon
98XXzIA03bCqmY3k4c/I0JM1jiLoxYLK5GDwukKCldBi7/pr8BacPL5u99GUeZHC
kfkbHi3/R3ZM0ZH3pEh8YHuANwmfTXZtCrvrUNU2llURu2Dc/C8z0aCCL+OtDScC
AwEAAaNmMGQwDgYDVR0PAQH/BAQDAgEGMBIGA1UdEwEB/wQIMAYBAf8CAQAwHQYD
VR0OBBYEFDV8bhVXDmaiEYWQIdVDWtBWVssBMB8GA1UdIwQYMBaAFL+nyW6jZqcz
guSmlJfL5n8C8HBGMA0GCSqGSIb3DQEBCwUAA4IBAQAiLoo/Qmy3n/ZGLdaYwHoW
eSmtIJtEZDAm1vwTr2OvtR2yYn/0ihZ6EEKdDc6+xgHTbb34j+6ERJCryqT9kqEc
oAfqiSVeQMXzcVEkQwjk/6CMv4RMxRdm+A+H90rT8uG/qSljvXRJ4APyTeY/ODhR
1uVt7lr92JJPCl2ajMpZuVvPrR6dx0XES8b1WWuwkgVkWw5GMo+Vbvp4x7SlDdxt
4U+mkCj61A/QFdAEv7Kp0TvaBXpw2HMuP+S0gmyqrc/Fn7W7tmtJvLtxdb+XIWM6
nvMPrHOzvZjJM7pMLT4AC9LCQet+/X0OVJ9U6/Bs54fLUG12vW/hgj9ficUfeTxW
-----END CERTIFICATE-----
